; Function Attrs: nounwind uwtable
define void @Abc_NtkMfsUpdateNetwork(ptr noundef readonly captures(none) %0, ptr noundef %1, ptr noundef readonly captures(none) %2, ptr noundef %3) local_unnamed_addr #0 {
  %5 = load ptr, ptr %1, align 8, !tbaa !3
  %6 = tail call ptr @Abc_NtkCreateObj(ptr noundef %5, i32 noundef 7) #11
  %7 = getelementptr inbounds nuw i8, ptr %6, i64 56
  store ptr %3, ptr %7, align 8, !tbaa !13
  %8 = getelementptr i8, ptr %2, i64 4
  %.val13 = load i32, ptr %8, align 4, !tbaa !14
  %9 = icmp sgt i32 %.val13, 0
  br i1 %9, label %.lr.ph, label %.critedge

.lr.ph:                                           ; preds = %4
  %10 = getelementptr i8, ptr %2, i64 8
  br label %11

11:                                               ; preds = %.lr.ph, %11
  %indvars.iv = phi i64 [ 0, %.lr.ph ], [ %indvars.iv.next, %11 ]
  %.val12 = load ptr, ptr %10, align 8, !tbaa !16
  %12 = getelementptr inbounds nuw ptr, ptr %.val12, i64 %indvars.iv
  %13 = load ptr, ptr %12, align 8, !tbaa !17
  tail call void @Abc_ObjAddFanin(ptr noundef %6, ptr noundef %13) #11
  %indvars.iv.next = add nuw nsw i64 %indvars.iv, 1
  %.val = load i32, ptr %8, align 4, !tbaa !14
  %14 = sext i32 %.val to i64
  %15 = icmp slt i64 %indvars.iv.next, %14
  br i1 %15, label %11, label %.critedge, !llvm.loop !18

.critedge:                                        ; preds = %11, %4
  %16 = getelementptr inbounds nuw i8, ptr %0, i64 192
  %17 = load ptr, ptr %16, align 8, !tbaa !20
  tail call void @Abc_NtkUpdate(ptr noundef nonnull %1, ptr noundef %6, ptr noundef %17) #11
  ret void
}